; ModuleID = 'source-C-CXX/59/114.c'
source_filename = "source-C-CXX/59/114.c"
target datalayout = "e-m:e-p270:32:32-p271:32:32-p272:64:64-i64:64-f80:128-n8:16:32:64-S128"
target triple = "x86_64-pc-linux-gnu"

@.str = private unnamed_addr constant [3 x i8] c"%d\00", align 1
@.str.1 = private unnamed_addr constant [7 x i8] c"%d %d\0A\00", align 1
@.str.2 = private unnamed_addr constant [6 x i8] c"empty\00", align 1

; Function Attrs: nofree norecurse nosync nounwind readnone sspstrong uwtable
define dso_local i32 @sushu(i32 %0) local_unnamed_addr #0 {
  %2 = icmp sgt i32 %0, 2
  br i1 %2, label %5, label %10

3:                                                ; preds = %5
  %4 = icmp eq i32 %9, %0
  br i1 %4, label %10, label %5, !llvm.loop !5

5:                                                ; preds = %1, %3
  %6 = phi i32 [ %9, %3 ], [ 2, %1 ]
  %7 = srem i32 %0, %6
  %8 = icmp eq i32 %7, 0
  %9 = add nuw nsw i32 %6, 1
  br i1 %8, label %10, label %3

10:                                               ; preds = %3, %5, %1
  %11 = phi i32 [ 1, %1 ], [ 0, %5 ], [ 1, %3 ]
  ret i32 %11
}

; Function Attrs: argmemonly mustprogress nofree nosync nounwind willreturn
declare void @llvm.lifetime.start.p0i8(i64 immarg, i8* nocapture) #1

; Function Attrs: argmemonly mustprogress nofree nosync nounwind willreturn
declare void @llvm.lifetime.end.p0i8(i64 immarg, i8* nocapture) #1

; Function Attrs: nofree nounwind sspstrong uwtable
define dso_local i32 @main() local_unnamed_addr #2 {
  %1 = alloca i32, align 4
  %2 = bitcast i32* %1 to i8*
  call void @llvm.lifetime.start.p0i8(i64 4, i8* nonnull %2) #4
  %3 = call i32 (i8*, ...) @__isoc99_scanf(i8* getelementptr inbounds ([3 x i8], [3 x i8]* @.str, i64 0, i64 0), i32* nonnull %1)
  %4 = load i32, i32* %1, align 4, !tbaa !7
  %5 = icmp slt i32 %4, 4
  br i1 %5, label %37, label %6

6:                                                ; preds = %0, %30
  %7 = phi i32 [ %31, %30 ], [ %4, %0 ]
  %8 = phi i32 [ %32, %30 ], [ 0, %0 ]
  %9 = phi i32 [ %33, %30 ], [ 4, %0 ]
  br label %12

10:                                               ; preds = %12
  %11 = icmp eq i32 %16, %9
  br i1 %11, label %17, label %12, !llvm.loop !5

12:                                               ; preds = %6, %10
  %13 = phi i32 [ %16, %10 ], [ 2, %6 ]
  %14 = urem i32 %9, %13
  %15 = icmp eq i32 %14, 0
  %16 = add nuw nsw i32 %13, 1
  br i1 %15, label %30, label %10

17:                                               ; preds = %10
  %18 = add nsw i32 %9, -2
  %19 = icmp ugt i32 %9, 4
  br i1 %19, label %22, label %27

20:                                               ; preds = %22
  %21 = icmp eq i32 %26, %18
  br i1 %21, label %27, label %22, !llvm.loop !5

22:                                               ; preds = %17, %20
  %23 = phi i32 [ %26, %20 ], [ 2, %17 ]
  %24 = urem i32 %18, %23
  %25 = icmp eq i32 %24, 0
  %26 = add nuw nsw i32 %23, 1
  br i1 %25, label %30, label %20

27:                                               ; preds = %20, %17
  %28 = call i32 (i8*, ...) @printf(i8* nonnull dereferenceable(1) getelementptr inbounds ([7 x i8], [7 x i8]* @.str.1, i64 0, i64 0), i32 %18, i32 %9)
  %29 = load i32, i32* %1, align 4, !tbaa !7
  br label %30

30:                                               ; preds = %12, %22, %27
  %31 = phi i32 [ %29, %27 ], [ %7, %22 ], [ %7, %12 ]
  %32 = phi i32 [ 1, %27 ], [ %8, %22 ], [ %8, %12 ]
  %33 = add nuw nsw i32 %9, 1
  %34 = icmp slt i32 %9, %31
  br i1 %34, label %6, label %35, !llvm.loop !11

35:                                               ; preds = %30
  %36 = icmp eq i32 %32, 0
  br i1 %36, label %37, label %39

37:                                               ; preds = %0, %35
  %38 = call i32 (i8*, ...) @printf(i8* nonnull dereferenceable(1) getelementptr inbounds ([6 x i8], [6 x i8]* @.str.2, i64 0, i64 0))
  br label %39

39:                                               ; preds = %37, %35
  call void @llvm.lifetime.end.p0i8(i64 4, i8* nonnull %2) #4
  ret i32 0
}

; Function Attrs: nofree nounwind
declare noundef i32 @__isoc99_scanf(i8* nocapture noundef readonly, ...) local_unnamed_addr #3

; Function Attrs: nofree nounwind
declare noundef i32 @printf(i8* nocapture noundef readonly, ...) local_unnamed_addr #3


!llvm.module.flags = !{!0, !1, !2, !3}
!llvm.ident = !{!4}

!0 = !{i32 1, !"wchar_size", i32 4}
!1 = !{i32 7, !"PIC Level", i32 2}
!2 = !{i32 7, !"PIE Level", i32 2}
!3 = !{i32 7, !"uwtable", i32 1}
!4 = !{!"clang version 13.0.0"}
!5 = distinct !{!5, !6}
!6 = !{!"llvm.loop.mustprogress"}
!7 = !{!8, !8, i64 0}
!8 = !{!"int", !9, i64 0}
!9 = !{!"omnipotent char", !10, i64 0}
!10 = !{!"Simple C/C++ TBAA"}
!11 = distinct !{!11, !6}
